; Function Attrs: nounwind uwtable
define hidden zeroext i1 @SDL_KeyMatchString(ptr noundef readnone captures(none) %0, ptr noundef %1, ptr noundef %2) local_unnamed_addr #0 {
  %4 = icmp eq ptr %1, %2
  br i1 %4, label %14, label %5

5:                                                ; preds = %3
  %6 = icmp ne ptr %1, null
  %7 = icmp ne ptr %2, null
  %or.cond = and i1 %6, %7
  br i1 %or.cond, label %8, label %14

8:                                                ; preds = %5
  %9 = load i8, ptr %1, align 1
  %10 = load i8, ptr %2, align 1
  %.not = icmp eq i8 %9, %10
  br i1 %.not, label %11, label %14

11:                                               ; preds = %8
  %12 = tail call i32 @SDL_strcmp_REAL(ptr noundef nonnull %1, ptr noundef nonnull %2) #10
  %13 = icmp eq i32 %12, 0
  br label %14

14:                                               ; preds = %8, %5, %3, %11
  %.0 = phi i1 [ %13, %11 ], [ true, %3 ], [ false, %5 ], [ false, %8 ]
  ret i1 %.0
}